; Function Attrs: mustprogress nounwind uwtable
define internal void @_ZN9grpc_core12_GLOBAL__N_122XdsServerConfigFetcher15ListenerWatcher23FilterChainMatchManager37StaticXdsServerConfigSelectorProvider11CancelWatchEv(ptr nocapture noundef nonnull align 8 dereferenceable(80) %this) unnamed_addr #7 align 2 {
entry:
  %watcher_ = getelementptr inbounds i8, ptr %this, i64 72
  %0 = load ptr, ptr %watcher_, align 8
  store ptr null, ptr %watcher_, align 8
  %tobool.not.i.i = icmp eq ptr %0, null
  br i1 %tobool.not.i.i, label %_ZNSt10unique_ptrIN9grpc_core28ServerConfigSelectorProvider27ServerConfigSelectorWatcherESt14default_deleteIS2_EE5resetEPS2_.exit, label %_ZNKSt14default_deleteIN9grpc_core28ServerConfigSelectorProvider27ServerConfigSelectorWatcherEEclEPS2_.exit.i.i

_ZNKSt14default_deleteIN9grpc_core28ServerConfigSelectorProvider27ServerConfigSelectorWatcherEEclEPS2_.exit.i.i: ; preds = %entry
  %vtable.i.i.i = load ptr, ptr %0, align 8
  %vfn.i.i.i = getelementptr inbounds i8, ptr %vtable.i.i.i, i64 8
  %1 = load ptr, ptr %vfn.i.i.i, align 8
  tail call void %1(ptr noundef nonnull align 8 dereferenceable(8) %0) #26
  br label %_ZNSt10unique_ptrIN9grpc_core28ServerConfigSelectorProvider27ServerConfigSelectorWatcherESt14default_deleteIS2_EE5resetEPS2_.exit

_ZNSt10unique_ptrIN9grpc_core28ServerConfigSelectorProvider27ServerConfigSelectorWatcherESt14default_deleteIS2_EE5resetEPS2_.exit: ; preds = %entry, %_ZNKSt14default_deleteIN9grpc_core28ServerConfigSelectorProvider27ServerConfigSelectorWatcherEEclEPS2_.exit.i.i
  ret void
}